; Function Attrs: nounwind uwtable
define ptr @l_Std_Queue_filterM___rarg(ptr noundef %0, ptr readnone captures(none) %1, ptr noundef %2, ptr noundef %3) #1 {
  %5 = getelementptr inbounds nuw i8, ptr %0, i64 16
  %6 = load ptr, ptr %5, align 8, !tbaa !4
  %7 = ptrtoint ptr %6 to i64
  %8 = and i64 %7, 1
  %.not = icmp eq i64 %8, 0
  br i1 %.not, label %9, label %lean_inc.exit41

9:                                                ; preds = %4
  %.val.i = load i32, ptr %6, align 4, !tbaa !8
  %10 = icmp sgt i32 %.val.i, 0
  br i1 %10, label %11, label %13, !prof !13

11:                                               ; preds = %9
  %12 = add nuw i32 %.val.i, 1
  store i32 %12, ptr %6, align 4, !tbaa !8
  br label %lean_inc.exit41

13:                                               ; preds = %9
  %.not.i = icmp eq i32 %.val.i, 0
  br i1 %.not.i, label %lean_inc.exit41, label %14

14:                                               ; preds = %13
  tail call void @lean_inc_ref_cold(ptr noundef nonnull %6) #4
  br label %lean_inc.exit41

lean_inc.exit41:                                  ; preds = %14, %13, %11, %4
  %15 = getelementptr inbounds nuw i8, ptr %3, i64 16
  %16 = load ptr, ptr %15, align 8, !tbaa !4
  %17 = ptrtoint ptr %16 to i64
  %18 = and i64 %17, 1
  %.not64 = icmp eq i64 %18, 0
  br i1 %.not64, label %19, label %lean_inc.exit40

19:                                               ; preds = %lean_inc.exit41
  %.val.i42 = load i32, ptr %16, align 4, !tbaa !8
  %20 = icmp sgt i32 %.val.i42, 0
  br i1 %20, label %21, label %23, !prof !13

21:                                               ; preds = %19
  %22 = add nuw i32 %.val.i42, 1
  store i32 %22, ptr %16, align 4, !tbaa !8
  br label %lean_inc.exit40

23:                                               ; preds = %19
  %.not.i43 = icmp eq i32 %.val.i42, 0
  br i1 %.not.i43, label %lean_inc.exit40, label %24

24:                                               ; preds = %23
  tail call void @lean_inc_ref_cold(ptr noundef nonnull %16) #4
  br label %lean_inc.exit40

lean_inc.exit40:                                  ; preds = %24, %23, %21, %lean_inc.exit41
  %25 = ptrtoint ptr %2 to i64
  %26 = and i64 %25, 1
  %.not65 = icmp eq i64 %26, 0
  br i1 %.not65, label %27, label %lean_inc.exit39

27:                                               ; preds = %lean_inc.exit40
  %.val.i45 = load i32, ptr %2, align 4, !tbaa !8
  %28 = icmp sgt i32 %.val.i45, 0
  br i1 %28, label %29, label %31, !prof !13

29:                                               ; preds = %27
  %30 = add nuw i32 %.val.i45, 1
  store i32 %30, ptr %2, align 4, !tbaa !8
  br label %lean_inc.exit39

31:                                               ; preds = %27
  %.not.i46 = icmp eq i32 %.val.i45, 0
  br i1 %.not.i46, label %lean_inc.exit39, label %32

32:                                               ; preds = %31
  tail call void @lean_inc_ref_cold(ptr noundef nonnull %2) #4
  br label %lean_inc.exit39

lean_inc.exit39:                                  ; preds = %32, %31, %29, %lean_inc.exit40
  %33 = ptrtoint ptr %0 to i64
  %34 = and i64 %33, 1
  %.not66 = icmp eq i64 %34, 0
  br i1 %.not66, label %35, label %lean_inc.exit38

35:                                               ; preds = %lean_inc.exit39
  %.val.i48 = load i32, ptr %0, align 4, !tbaa !8
  %36 = icmp sgt i32 %.val.i48, 0
  br i1 %36, label %37, label %39, !prof !13

37:                                               ; preds = %35
  %38 = add nuw i32 %.val.i48, 1
  store i32 %38, ptr %0, align 4, !tbaa !8
  br label %42

39:                                               ; preds = %35
  %.not.i49 = icmp eq i32 %.val.i48, 0
  br i1 %.not.i49, label %42, label %40

40:                                               ; preds = %39
  tail call void @lean_inc_ref_cold(ptr noundef nonnull %0) #4
  br label %42

lean_inc.exit38:                                  ; preds = %lean_inc.exit39
  %41 = tail call ptr @l_List_filterAuxM___rarg(ptr noundef nonnull %0, ptr noundef nonnull inttoptr (i64 1 to ptr), ptr noundef %2, ptr noundef %16, ptr noundef nonnull inttoptr (i64 1 to ptr)) #4
  br label %lean_inc.exit37

42:                                               ; preds = %40, %39, %37
  %43 = tail call ptr @l_List_filterAuxM___rarg(ptr noundef nonnull %0, ptr noundef nonnull inttoptr (i64 1 to ptr), ptr noundef %2, ptr noundef %16, ptr noundef nonnull inttoptr (i64 1 to ptr)) #4
  %.val.i51 = load i32, ptr %0, align 4, !tbaa !8
  %44 = icmp sgt i32 %.val.i51, 0
  br i1 %44, label %45, label %47, !prof !13

45:                                               ; preds = %42
  %46 = add nuw i32 %.val.i51, 1
  store i32 %46, ptr %0, align 4, !tbaa !8
  br label %lean_inc.exit37

47:                                               ; preds = %42
  %.not.i52 = icmp eq i32 %.val.i51, 0
  br i1 %.not.i52, label %lean_inc.exit37, label %48

48:                                               ; preds = %47
  tail call void @lean_inc_ref_cold(ptr noundef nonnull %0) #4
  br label %lean_inc.exit37

lean_inc.exit37:                                  ; preds = %48, %47, %45, %lean_inc.exit38
  %49 = phi ptr [ %41, %lean_inc.exit38 ], [ %43, %45 ], [ %43, %47 ], [ %43, %48 ]
  tail call void @lean_inc_heartbeat() #4
  %50 = tail call noalias ptr @mi_malloc_small(i64 noundef 32) #4
  %51 = icmp eq ptr %50, null
  br i1 %51, label %52, label %lean_alloc_closure.exit

52:                                               ; preds = %lean_inc.exit37
  tail call void @lean_internal_panic_out_of_memory() #5
  unreachable

lean_alloc_closure.exit:                          ; preds = %lean_inc.exit37
  %53 = getelementptr inbounds nuw i8, ptr %50, i64 4
  store i32 1, ptr %50, align 4, !tbaa !8
  store i32 -184549344, ptr %53, align 4
  %54 = getelementptr inbounds nuw i8, ptr %50, i64 8
  store ptr @l_Std_Queue_filterM___rarg___lambda__1, ptr %54, align 8, !tbaa !4
  %55 = getelementptr inbounds nuw i8, ptr %50, i64 16
  store i16 2, ptr %55, align 8, !tbaa !11
  %56 = getelementptr inbounds nuw i8, ptr %50, i64 18
  store i16 1, ptr %56, align 2, !tbaa !11
  %57 = getelementptr inbounds nuw i8, ptr %50, i64 24
  store ptr %0, ptr %57, align 8, !tbaa !4
  br i1 %.not, label %58, label %lean_inc.exit36

58:                                               ; preds = %lean_alloc_closure.exit
  %.val.i54 = load i32, ptr %6, align 4, !tbaa !8
  %59 = icmp sgt i32 %.val.i54, 0
  br i1 %59, label %60, label %62, !prof !13

60:                                               ; preds = %58
  %61 = add nuw i32 %.val.i54, 1
  store i32 %61, ptr %6, align 4, !tbaa !8
  br label %lean_inc.exit36

62:                                               ; preds = %58
  %.not.i55 = icmp eq i32 %.val.i54, 0
  br i1 %.not.i55, label %lean_inc.exit36, label %63

63:                                               ; preds = %62
  tail call void @lean_inc_ref_cold(ptr noundef nonnull %6) #4
  br label %lean_inc.exit36

lean_inc.exit36:                                  ; preds = %63, %62, %60, %lean_alloc_closure.exit
  %64 = ptrtoint ptr %50 to i64
  %65 = and i64 %64, 1
  %.not67 = icmp eq i64 %65, 0
  br i1 %.not67, label %66, label %lean_inc.exit35

66:                                               ; preds = %lean_inc.exit36
  store i32 2, ptr %50, align 4, !tbaa !8
  br label %lean_inc.exit35

lean_inc.exit35:                                  ; preds = %66, %lean_inc.exit36
  %67 = tail call ptr @lean_apply_4(ptr noundef %6, ptr noundef nonnull inttoptr (i64 1 to ptr), ptr noundef nonnull inttoptr (i64 1 to ptr), ptr noundef %49, ptr noundef nonnull %50) #4
  br i1 %.not, label %68, label %lean_inc.exit

68:                                               ; preds = %lean_inc.exit35
  %.val.i60 = load i32, ptr %6, align 4, !tbaa !8
  %69 = icmp sgt i32 %.val.i60, 0
  br i1 %69, label %70, label %72, !prof !13

70:                                               ; preds = %68
  %71 = add nuw i32 %.val.i60, 1
  store i32 %71, ptr %6, align 4, !tbaa !8
  br label %lean_inc.exit

72:                                               ; preds = %68
  %.not.i61 = icmp eq i32 %.val.i60, 0
  br i1 %.not.i61, label %lean_inc.exit, label %73

73:                                               ; preds = %72
  tail call void @lean_inc_ref_cold(ptr noundef nonnull %6) #4
  br label %lean_inc.exit

lean_inc.exit:                                    ; preds = %73, %72, %70, %lean_inc.exit35
  tail call void @lean_inc_heartbeat() #4
  %74 = tail call noalias ptr @mi_malloc_small(i64 noundef 72) #4
  %75 = icmp eq ptr %74, null
  br i1 %75, label %76, label %lean_alloc_closure.exit63

76:                                               ; preds = %lean_inc.exit
  tail call void @lean_internal_panic_out_of_memory() #5
  unreachable

lean_alloc_closure.exit63:                        ; preds = %lean_inc.exit
  %77 = getelementptr inbounds nuw i8, ptr %74, i64 4
  store i32 1, ptr %74, align 4, !tbaa !8
  store i32 -184549304, ptr %77, align 4
  %78 = getelementptr inbounds nuw i8, ptr %74, i64 8
  store ptr @l_Std_Queue_filterM___rarg___lambda__3, ptr %78, align 8, !tbaa !4
  %79 = getelementptr inbounds nuw i8, ptr %74, i64 16
  store i16 7, ptr %79, align 8, !tbaa !11
  %80 = getelementptr inbounds nuw i8, ptr %74, i64 18
  store i16 6, ptr %80, align 2, !tbaa !11
  %81 = getelementptr inbounds nuw i8, ptr %74, i64 24
  store ptr %3, ptr %81, align 8, !tbaa !4
  %82 = getelementptr inbounds nuw i8, ptr %74, i64 32
  store ptr %0, ptr %82, align 8, !tbaa !4
  %83 = getelementptr inbounds nuw i8, ptr %74, i64 40
  store ptr %2, ptr %83, align 8, !tbaa !4
  %84 = getelementptr inbounds nuw i8, ptr %74, i64 48
  store ptr inttoptr (i64 1 to ptr), ptr %84, align 8, !tbaa !4
  %85 = getelementptr inbounds nuw i8, ptr %74, i64 56
  store ptr %6, ptr %85, align 8, !tbaa !4
  %86 = getelementptr inbounds nuw i8, ptr %74, i64 64
  store ptr %50, ptr %86, align 8, !tbaa !4
  %87 = tail call ptr @lean_apply_4(ptr noundef %6, ptr noundef nonnull inttoptr (i64 1 to ptr), ptr noundef nonnull inttoptr (i64 1 to ptr), ptr noundef %67, ptr noundef nonnull %74) #4
  ret ptr %87
}